target datalayout = "e-m:e-p270:32:32-p271:32:32-p272:64:64-i64:64-i128:128-f80:128-n8:16:32:64-S128"
target triple = "x86_64-pc-linux-gnu"

; Function Attrs: mustprogress nounwind uwtable
define hidden noundef zeroext i8 @_ZN6Assimp3FBX4Util12DecodeBase64Ec(i8 noundef signext %0) #0 {
  %2 = alloca i8, align 1
  %3 = alloca i8, align 1
  %4 = alloca i8, align 1
  %5 = alloca i32, align 4
  store i8 %0, ptr %3, align 1
  call void @llvm.lifetime.start.p0(i64 1, ptr %4) #13
  %6 = load i8, ptr %3, align 1
  store i8 %6, ptr %4, align 1
  %7 = load i8, ptr %4, align 1
  %8 = zext i8 %7 to i32
  %9 = icmp sgt i32 %8, 127
  br i1 %9, label %10, label %11

10:                                               ; preds = %1
  store i8 -1, ptr %2, align 1
  store i32 1, ptr %5, align 4
  br label %16

11:                                               ; preds = %1
  %12 = load i8, ptr %4, align 1
  %13 = zext i8 %12 to i64
  %14 = getelementptr inbounds nuw [128 x i8], ptr @_ZN6Assimp3FBX4UtilL17base64DecodeTableE, i64 0, i64 %13
  %15 = load i8, ptr %14, align 1
  store i8 %15, ptr %2, align 1
  store i32 1, ptr %5, align 4
  br label %16

16:                                               ; preds = %11, %10
  call void @llvm.lifetime.end.p0(i64 1, ptr %4) #13
  %17 = load i8, ptr %2, align 1
  ret i8 %17
}