; Function Attrs: mustprogress nofree norecurse nosync nounwind willreturn memory(none) uwtable
define hidden noundef zeroext i8 @_ZN6Assimp3FBX4Util12DecodeBase64Ec(i8 noundef signext %0) local_unnamed_addr #0 {
  %2 = icmp slt i8 %0, 0
  br i1 %2, label %7, label %3

3:                                                ; preds = %1
  %4 = zext nneg i8 %0 to i64
  %5 = getelementptr inbounds nuw [128 x i8], ptr @_ZN6Assimp3FBX4UtilL17base64DecodeTableE, i64 0, i64 %4
  %6 = load i8, ptr %5, align 1
  br label %7

7:                                                ; preds = %1, %3
  %.0 = phi i8 [ %6, %3 ], [ -1, %1 ]
  ret i8 %.0
}